; ModuleID = '58/212.c'
source_filename = "58/212.c"
target datalayout = "e-m:e-p270:32:32-p271:32:32-p272:64:64-i64:64-f80:128-n8:16:32:64-S128"
target triple = "x86_64-pc-linux-gnu"

@.str = private unnamed_addr constant [3 x i8] c"%d\00", align 1
@.str.1 = private unnamed_addr constant [3 x i8] c"0\0A\00", align 1
@.str.2 = private unnamed_addr constant [3 x i8] c"1\0A\00", align 1

; Function Attrs: noinline nounwind uwtable
define dso_local i32 @main() #0 {
  %1 = alloca i32, align 4
  %2 = alloca i32, align 4
  %3 = alloca i32, align 4
  %4 = alloca i32, align 4
  %5 = alloca i32, align 4
  %6 = alloca i32, align 4
  %7 = alloca i8*, align 8
  %8 = alloca i64, align 8
  store i32 0, i32* %1, align 4
  %9 = call i32 (i8*, ...) @__isoc99_scanf(i8* getelementptr inbounds ([3 x i8], [3 x i8]* @.str, i64 0, i64 0), i32* %6)
  %10 = call i32 @getchar()
  %11 = load i32, i32* %6, align 4
  %12 = zext i32 %11 to i64
  %13 = call i8* @llvm.stacksave()
  store i8* %13, i8** %7, align 8
  %14 = alloca [100 x i8], i64 %12, align 16
  store i64 %12, i64* %8, align 8
  store i32 0, i32* %2, align 4
  br label %15

15:                                               ; preds = %199, %0
  %16 = load i32, i32* %2, align 4
  %17 = load i32, i32* %6, align 4
  %18 = icmp slt i32 %16, %17
  br i1 %18, label %19, label %202

19:                                               ; preds = %15
  %20 = load i32, i32* %2, align 4
  %21 = sext i32 %20 to i64
  %22 = getelementptr inbounds [100 x i8], [100 x i8]* %14, i64 %21
  %23 = getelementptr inbounds [100 x i8], [100 x i8]* %22, i64 0, i64 0
  %24 = call i32 (i8*, ...) bitcast (i32 (...)* @gets to i32 (i8*, ...)*)(i8* %23)
  %25 = load i32, i32* %2, align 4
  %26 = sext i32 %25 to i64
  %27 = getelementptr inbounds [100 x i8], [100 x i8]* %14, i64 %26
  %28 = getelementptr inbounds [100 x i8], [100 x i8]* %27, i64 0, i64 0
  %29 = load i8, i8* %28, align 4
  %30 = sext i8 %29 to i32
  %31 = icmp ne i32 %30, 95
  br i1 %31, label %32, label %70

32:                                               ; preds = %19
  %33 = load i32, i32* %2, align 4
  %34 = sext i32 %33 to i64
  %35 = getelementptr inbounds [100 x i8], [100 x i8]* %14, i64 %34
  %36 = getelementptr inbounds [100 x i8], [100 x i8]* %35, i64 0, i64 0
  %37 = load i8, i8* %36, align 4
  %38 = sext i8 %37 to i32
  %39 = sub nsw i32 %38, 97
  %40 = icmp slt i32 %39, 0
  br i1 %40, label %50, label %41

41:                                               ; preds = %32
  %42 = load i32, i32* %2, align 4
  %43 = sext i32 %42 to i64
  %44 = getelementptr inbounds [100 x i8], [100 x i8]* %14, i64 %43
  %45 = getelementptr inbounds [100 x i8], [100 x i8]* %44, i64 0, i64 0
  %46 = load i8, i8* %45, align 4
  %47 = sext i8 %46 to i32
  %48 = sub nsw i32 %47, 122
  %49 = icmp sgt i32 %48, 0
  br i1 %49, label %50, label %70

50:                                               ; preds = %41, %32
  %51 = load i32, i32* %2, align 4
  %52 = sext i32 %51 to i64
  %53 = getelementptr inbounds [100 x i8], [100 x i8]* %14, i64 %52
  %54 = getelementptr inbounds [100 x i8], [100 x i8]* %53, i64 0, i64 0
  %55 = load i8, i8* %54, align 4
  %56 = sext i8 %55 to i32
  %57 = sub nsw i32 %56, 65
  %58 = icmp slt i32 %57, 0
  br i1 %58, label %68, label %59

59:                                               ; preds = %50
  %60 = load i32, i32* %2, align 4
  %61 = sext i32 %60 to i64
  %62 = getelementptr inbounds [100 x i8], [100 x i8]* %14, i64 %61
  %63 = getelementptr inbounds [100 x i8], [100 x i8]* %62, i64 0, i64 0
  %64 = load i8, i8* %63, align 4
  %65 = sext i8 %64 to i32
  %66 = sub nsw i32 %65, 90
  %67 = icmp sgt i32 %66, 0
  br i1 %67, label %68, label %70

68:                                               ; preds = %59, %50
  %69 = call i32 (i8*, ...) @printf(i8* getelementptr inbounds ([3 x i8], [3 x i8]* @.str.1, i64 0, i64 0))
  br label %199

70:                                               ; preds = %59, %41, %19
  store i32 1, i32* %3, align 4
  br label %71

71:                                               ; preds = %182, %70
  %72 = load i32, i32* %2, align 4
  %73 = sext i32 %72 to i64
  %74 = getelementptr inbounds [100 x i8], [100 x i8]* %14, i64 %73
  %75 = load i32, i32* %3, align 4
  %76 = sext i32 %75 to i64
  %77 = getelementptr inbounds [100 x i8], [100 x i8]* %74, i64 0, i64 %76
  %78 = load i8, i8* %77, align 1
  %79 = sext i8 %78 to i32
  %80 = icmp ne i32 %79, 0
  br i1 %80, label %81, label %185

81:                                               ; preds = %71
  %82 = load i32, i32* %2, align 4
  %83 = sext i32 %82 to i64
  %84 = getelementptr inbounds [100 x i8], [100 x i8]* %14, i64 %83
  %85 = load i32, i32* %3, align 4
  %86 = sext i32 %85 to i64
  %87 = getelementptr inbounds [100 x i8], [100 x i8]* %84, i64 0, i64 %86
  %88 = load i8, i8* %87, align 1
  %89 = sext i8 %88 to i32
  %90 = icmp eq i32 %89, 10
  br i1 %90, label %101, label %91

91:                                               ; preds = %81
  %92 = load i32, i32* %2, align 4
  %93 = sext i32 %92 to i64
  %94 = getelementptr inbounds [100 x i8], [100 x i8]* %14, i64 %93
  %95 = load i32, i32* %3, align 4
  %96 = sext i32 %95 to i64
  %97 = getelementptr inbounds [100 x i8], [100 x i8]* %94, i64 0, i64 %96
  %98 = load i8, i8* %97, align 1
  %99 = sext i8 %98 to i32
  %100 = icmp eq i32 %99, 32
  br i1 %100, label %101, label %103

101:                                              ; preds = %91, %81
  %102 = call i32 (i8*, ...) @printf(i8* getelementptr inbounds ([3 x i8], [3 x i8]* @.str.1, i64 0, i64 0))
  br label %185

103:                                              ; preds = %91
  %104 = load i32, i32* %2, align 4
  %105 = sext i32 %104 to i64
  %106 = getelementptr inbounds [100 x i8], [100 x i8]* %14, i64 %105
  %107 = load i32, i32* %3, align 4
  %108 = sext i32 %107 to i64
  %109 = getelementptr inbounds [100 x i8], [100 x i8]* %106, i64 0, i64 %108
  %110 = load i8, i8* %109, align 1
  %111 = sext i8 %110 to i32
  %112 = icmp ne i32 %111, 95
  br i1 %112, label %113, label %181

113:                                              ; preds = %103
  %114 = load i32, i32* %2, align 4
  %115 = sext i32 %114 to i64
  %116 = getelementptr inbounds [100 x i8], [100 x i8]* %14, i64 %115
  %117 = load i32, i32* %3, align 4
  %118 = sext i32 %117 to i64
  %119 = getelementptr inbounds [100 x i8], [100 x i8]* %116, i64 0, i64 %118
  %120 = load i8, i8* %119, align 1
  %121 = sext i8 %120 to i32
  %122 = sub nsw i32 %121, 97
  %123 = icmp slt i32 %122, 0
  br i1 %123, label %135, label %124

124:                                              ; preds = %113
  %125 = load i32, i32* %2, align 4
  %126 = sext i32 %125 to i64
  %127 = getelementptr inbounds [100 x i8], [100 x i8]* %14, i64 %126
  %128 = load i32, i32* %3, align 4
  %129 = sext i32 %128 to i64
  %130 = getelementptr inbounds [100 x i8], [100 x i8]* %127, i64 0, i64 %129
  %131 = load i8, i8* %130, align 1
  %132 = sext i8 %131 to i32
  %133 = sub nsw i32 %132, 122
  %134 = icmp sgt i32 %133, 0
  br i1 %134, label %135, label %181

135:                                              ; preds = %124, %113
  %136 = load i32, i32* %2, align 4
  %137 = sext i32 %136 to i64
  %138 = getelementptr inbounds [100 x i8], [100 x i8]* %14, i64 %137
  %139 = load i32, i32* %3, align 4
  %140 = sext i32 %139 to i64
  %141 = getelementptr inbounds [100 x i8], [100 x i8]* %138, i64 0, i64 %140
  %142 = load i8, i8* %141, align 1
  %143 = sext i8 %142 to i32
  %144 = sub nsw i32 %143, 65
  %145 = icmp slt i32 %144, 0
  br i1 %145, label %157, label %146

146:                                              ; preds = %135
  %147 = load i32, i32* %2, align 4
  %148 = sext i32 %147 to i64
  %149 = getelementptr inbounds [100 x i8], [100 x i8]* %14, i64 %148
  %150 = load i32, i32* %3, align 4
  %151 = sext i32 %150 to i64
  %152 = getelementptr inbounds [100 x i8], [100 x i8]* %149, i64 0, i64 %151
  %153 = load i8, i8* %152, align 1
  %154 = sext i8 %153 to i32
  %155 = sub nsw i32 %154, 90
  %156 = icmp sgt i32 %155, 0
  br i1 %156, label %157, label %181

157:                                              ; preds = %146, %135
  %158 = load i32, i32* %2, align 4
  %159 = sext i32 %158 to i64
  %160 = getelementptr inbounds [100 x i8], [100 x i8]* %14, i64 %159
  %161 = load i32, i32* %3, align 4
  %162 = sext i32 %161 to i64
  %163 = getelementptr inbounds [100 x i8], [100 x i8]* %160, i64 0, i64 %162
  %164 = load i8, i8* %163, align 1
  %165 = sext i8 %164 to i32
  %166 = sub nsw i32 %165, 48
  %167 = icmp slt i32 %166, 0
  br i1 %167, label %179, label %168

168:                                              ; preds = %157
  %169 = load i32, i32* %2, align 4
  %170 = sext i32 %169 to i64
  %171 = getelementptr inbounds [100 x i8], [100 x i8]* %14, i64 %170
  %172 = load i32, i32* %3, align 4
  %173 = sext i32 %172 to i64
  %174 = getelementptr inbounds [100 x i8], [100 x i8]* %171, i64 0, i64 %173
  %175 = load i8, i8* %174, align 1
  %176 = sext i8 %175 to i32
  %177 = sub nsw i32 %176, 48
  %178 = icmp sgt i32 %177, 9
  br i1 %178, label %179, label %181

179:                                              ; preds = %168, %157
  %180 = call i32 (i8*, ...) @printf(i8* getelementptr inbounds ([3 x i8], [3 x i8]* @.str.1, i64 0, i64 0))
  br label %185

181:                                              ; preds = %168, %146, %124, %103
  br label %182

182:                                              ; preds = %181
  %183 = load i32, i32* %3, align 4
  %184 = add nsw i32 %183, 1
  store i32 %184, i32* %3, align 4
  br label %71

185:                                              ; preds = %179, %101, %71
  %186 = load i32, i32* %2, align 4
  %187 = sext i32 %186 to i64
  %188 = getelementptr inbounds [100 x i8], [100 x i8]* %14, i64 %187
  %189 = load i32, i32* %3, align 4
  %190 = sext i32 %189 to i64
  %191 = getelementptr inbounds [100 x i8], [100 x i8]* %188, i64 0, i64 %190
  %192 = load i8, i8* %191, align 1
  %193 = sext i8 %192 to i32
  %194 = icmp eq i32 %193, 0
  br i1 %194, label %195, label %197

195:                                              ; preds = %185
  %196 = call i32 (i8*, ...) @printf(i8* getelementptr inbounds ([3 x i8], [3 x i8]* @.str.2, i64 0, i64 0))
  br label %197

197:                                              ; preds = %195, %185
  br label %198

198:                                              ; preds = %197
  br label %199

199:                                              ; preds = %198, %68
  %200 = load i32, i32* %2, align 4
  %201 = add nsw i32 %200, 1
  store i32 %201, i32* %2, align 4
  br label %15

202:                                              ; preds = %15
  %203 = call i32 @getchar()
  %204 = call i32 @getchar()
  %205 = load i8*, i8** %7, align 8
  call void @llvm.stackrestore(i8* %205)
  %206 = load i32, i32* %1, align 4
  ret i32 %206
}

declare dso_local i32 @__isoc99_scanf(i8*, ...) #1

declare dso_local i32 @getchar() #1

; Function Attrs: nounwind
declare i8* @llvm.stacksave() #2

declare dso_local i32 @gets(...) #1

declare dso_local i32 @printf(i8*, ...) #1

; Function Attrs: nounwind
declare void @llvm.stackrestore(i8*) #2


!llvm.module.flags = !{!0}
!llvm.ident = !{!1}

!0 = !{i32 1, !"wchar_size", i32 4}
!1 = !{!"clang version 10.0.0-4ubuntu1 "}
